(iuserprofile
UserProfile
p0
(dp1
S'keywords'
p2
(lp3
(lp4
a(lp5
a(lp6
Vpoincheval spent 13 days living
p7
aVfollow
p8
aVbear sculpture
p9
aVparis resident visiting
p10
aVlive
p11
aVweek
p12
aVpoincheval
p13
aVhold
p14
aVliving
p15
aVleigh thomas
p16
aa(lp17
Vsnapchat tells users
p18
aVspiegel tells viewers
p19
aVpeople
p20
aVsnap
p21
aVmurphy
p22
aVhearts users find
p23
aVgood listeners led snap
p24
aVvideo
p25
aVcompany gather
p26
aVspiegel describes
p27
aa(lp28
Vsocial safety net programs
p29
aVtouch social security
p30
aVleave social security
p31
aVpartially privatize social security
p32
aVmedicare spending
p33
aVprograms
p34
aVbiggest cuts
p35
aVbudget
p36
aVaffect poor minority voters
p37
aVcuts
p38
aasS'username'
p39
S'john'
p40
sS'facial_features'
p41
S'FILENAME'
p42
sS'interests'
p43
(dp44
S'golf'
p45
F0.5
sS'money'
p46
F0.5
sS'africa'
p47
F0.2
sS'odd'
p48
F0.2
sS'politics'
p49
F0.5
sS'england'
p50
F0.5
sS'sport'
p51
F0.2
sS'technology'
p52
F0.8
sS'art'
p53
F0.8
sS'basketball'
p54
F0.5
sS'business'
p55
F0.5
sS'northern_ireland'
p56
F0.5
sS'entertainment'
p57
F0.5
sS'motorsport'
p58
F0.5
sS'travel'
p59
F0.5
sS'tennis'
p60
F0.5
sS'scotland'
p61
F0.5
sS'asia'
p62
F0.5
sS'environment'
p63
F0.5
sS'companies'
p64
F0.5
sS'health'
p65
F0.8
sS'wales'
p66
F0.5
sS'top_stories'
p67
F1.0
sS'economy'
p68
F0.8
sS'europe'
p69
F0.5
sS'middle_east'
p70
F0.5
sS'football'
p71
F0.5
sS'latin_america'
p72
F0.2
sS'baseball'
p73
F0.5
sS'world'
p74
F0.5
sS'lifestyle'
p75
F0.5
sS'science'
p76
F0.5
sS'american_football'
p77
F0.5
sS'education'
p78
F0.5
sS'americas'
p79
F0.5
sS'uk'
p80
F0.8
sS'media'
p81
F0.5
sS'north_america'
p82
F0.8
sS'latest'
p83
F0.5
ssb.