(iuserprofile
UserProfile
p0
(dp1
S'keywords'
p2
(lp3
Vlee simmons
p4
aVmurdering zoe morgan
p5
aVforgive saunders
p6
aVlee
p7
aVzoe
p8
aVday saunders
p9
aVmorgan
p10
aVsaunders showed
p11
aVpremeditated attack
p12
aVkilling
p13
ag4
ag5
ag6
ag7
ag8
ag9
ag10
ag11
ag12
ag13
aVdetroit river
p14
aVunderground railroad routes
p15
aVchurch building
p16
aVunderground railroad
p17
aVdetroit
p18
aVescapees risked
p19
aVcanada
p20
aVfrigid river added
p21
aVdetroit skyline
p22
aVriver
p23
aVsell rustavi 2
p24
aVcourt
p25
aVruling
p26
aVtbilisi
p27
aVsell
p28
aVowner
p29
aVkhalvashi
p30
aVrustavi 2
p31
aVowner kibar khalvashi
p32
aVverdict
p33
aVprofessor schall
p34
aV20 years
p35
aVschool year
p36
aV\u201d professor schall agreed
p37
aVundergraduate years
p38
aVcolleges solve
p39
aVyear
p40
aVtime
p41
aValert students
p42
aVuniversity froze
p43
asS'username'
p44
S'Jonathon-Gorbscheid'
p45
sS'facial_features'
p46
S'FILENAME'
p47
sS'interests'
p48
(dp49
S'england'
p50
F0.5
sS'motorsport'
p51
F0.5
sS'money'
p52
F0.5
sS'africa'
p53
F0.5
sS'sport'
p54
F0.5
sS'politics'
p55
F0.5
sS'education'
p56
F0.8
sS'odd'
p57
F0.8
sS'golf'
p58
F0.5
sS'art'
p59
F0.8
sS'basketball'
p60
F0.5
sS'business'
p61
F0.5
sS'northern_ireland'
p62
F0.5
sS'entertainment'
p63
F0.5
sS'technology'
p64
F0.5
sS'travel'
p65
F0.8
sS'tennis'
p66
F0.5
sS'scotland'
p67
F0.5
sS'asia'
p68
F0.5
sS'environment'
p69
F0.5
sS'health'
p70
F0.8
sS'wales'
p71
F0.5
sS'top_stories'
p72
F1.0
sS'economy'
p73
F0.5
sS'europe'
p74
F0.8
sS'middle_east'
p75
F0.5
sS'football'
p76
F0.5
sS'latin_america'
p77
F0.2
sS'baseball'
p78
F0.5
sS'world'
p79
F0.5
sS'lifestyle'
p80
F0.5
sS'science'
p81
F0.5
sS'american_football'
p82
F0.5
sS'companies'
p83
F0.5
sS'americas'
p84
F0.5
sS'uk'
p85
F0.2
sS'media'
p86
F0.2
sS'north_america'
p87
F0.2
sS'latest'
p88
F0.5
ssb.