(iuserprofile
UserProfile
p0
(dp1
S'keywords'
p2
(lp3
Vaccusing nigerian soldiers
p4
aVlong hidden boko haram fighters
p5
aVsoldiers gathered women
p6
aVamerican government held
p7
aVdefeat boko haram
p8
aVboko haram members
p9
aVnigerian military mistakenly bombed
p10
aV\u201d babagana recalled soldiers
p11
aVboko haram
p12
aVnigerian military
p13
aVhuman rights
p14
aVinternational human rights groups
p15
aVisraeli interior ministry denied
p16
aVhuman rights watch employee
p17
aVdomestic human rights groups
p18
aVlaw forcing human rights groups
p19
aVhuman rights organization
p20
aVhuman rights record
p21
aVhuman rights watch
p22
aVisraeli district court
p23
aVspectacular work
p24
aVserious-minded people
p25
aVstarted acting
p26
aVacting bug
p27
aVchapel hill
p28
aVmaking people laugh
p29
aVclass clown put
p30
asS'username'
p31
S'Thomas-Groot'
p32
sS'facial_features'
p33
S'FILENAME'
p34
sS'interests'
p35
(dp36
S'golf'
p37
F0.5
sS'money'
p38
F0.5
sS'africa'
p39
F0.8
sS'odd'
p40
F0.5
sS'politics'
p41
F0.5
sS'england'
p42
F0.5
sS'sport'
p43
F0.2
sS'technology'
p44
F0.5
sS'art'
p45
F0.8
sS'basketball'
p46
F0.5
sS'business'
p47
F0.2
sS'northern_ireland'
p48
F0.5
sS'entertainment'
p49
F0.8
sS'motorsport'
p50
F0.5
sS'travel'
p51
F0.5
sS'tennis'
p52
F0.5
sS'scotland'
p53
F0.5
sS'asia'
p54
F0.2
sS'environment'
p55
F0.5
sS'companies'
p56
F0.5
sS'health'
p57
F0.5
sS'wales'
p58
F0.5
sS'top_stories'
p59
F1.0
sS'economy'
p60
F0.5
sS'europe'
p61
F0.2
sS'middle_east'
p62
F0.8
sS'football'
p63
F0.5
sS'latin_america'
p64
F0.5
sS'baseball'
p65
F0.5
sS'world'
p66
F0.5
sS'lifestyle'
p67
F0.5
sS'science'
p68
F0.5
sS'american_football'
p69
F0.5
sS'education'
p70
F0.2
sS'americas'
p71
F0.5
sS'uk'
p72
F0.5
sS'media'
p73
F0.5
sS'north_america'
p74
F0.8
sS'latest'
p75
F0.5
ssb.