(iuserprofile
UserProfile
p0
(dp1
S'keywords'
p2
(lp3
Vsoccer website
p4
aVprotesting injustices
p5
aVnational team
p6
aVnational anthems
p7
aVreign match
p8
aV\u201cstand respectfully\u201d
p9
aVannual general meeting
p10
aVislamic law requires
p11
aVrescues girls
p12
aVhelps prevent young girls
p13
aVso-called wedding night
p14
aVyoung girls
p15
aVlocal ngo called shaheen
p16
aVsenior religious authorities
p17
aVsexual abuse
p18
aVyoung daughter
p19
aVapproach poor families
p20
aVoffer chicken burgers
p21
aVchicken restaurants
p22
aVfried chicken
p23
aVsouth koreans ate chicken
p24
aVnoodle dish typically eaten
p25
aVchicken burgers
p26
aVconstitutional court forced park
p27
aVcourt ruling
p28
aVpresident park geun-hye
p29
aVsouth korea
p30
asS'username'
p31
S'Jonathan-Gerbscheid'
p32
sS'facial_features'
p33
S'FILENAME'
p34
sS'interests'
p35
(dp36
S'england'
p37
F0.5
sS'motorsport'
p38
F0.5
sS'money'
p39
F0.5
sS'africa'
p40
F0.5
sS'sport'
p41
F0.5
sS'politics'
p42
F0.8
sS'education'
p43
F0.5
sS'odd'
p44
F0.8
sS'golf'
p45
F0.5
sS'art'
p46
F0.8
sS'basketball'
p47
F0.5
sS'business'
p48
F0.5
sS'northern_ireland'
p49
F0.5
sS'entertainment'
p50
F0.2
sS'technology'
p51
F0.8
sS'travel'
p52
F0.5
sS'tennis'
p53
F0.5
sS'scotland'
p54
F0.5
sS'asia'
p55
F0.8
sS'environment'
p56
F0.5
sS'health'
p57
F0.5
sS'wales'
p58
F0.5
sS'top_stories'
p59
F1.0
sS'economy'
p60
F0.2
sS'europe'
p61
F0.5
sS'middle_east'
p62
F0.5
sS'football'
p63
F0.5
sS'latin_america'
p64
F0.5
sS'baseball'
p65
F0.5
sS'world'
p66
F0.5
sS'lifestyle'
p67
F0.2
sS'science'
p68
F0.5
sS'american_football'
p69
F0.5
sS'companies'
p70
F0.5
sS'americas'
p71
F0.5
sS'uk'
p72
F0.8
sS'media'
p73
F0.5
sS'north_america'
p74
F0.8
sS'latest'
p75
F0.5
ssb.