(iuserprofile
UserProfile
p0
(dp1
S'keywords'
p2
(lp3
Viceberg calving
p4
aVfloating ice shelves ordinarily act
p5
aVross ice shelf
p6
aVbiggest iceberg recorded
p7
aVdozen major ice shelves
p8
aVsimilar large calving event
p9
aVice shelf
p10
aV175km-long fissure runs
p11
aVsea level rise
p12
aVbritish antarctic survey
p13
aVbaltimore police commissioner kevin davis
p14
aVbaltimore police department
p15
aVconsent decree mandating police reforms
p16
aVwearing police uniforms
p17
aVattorney rod rosenstein
p18
aVattorney general loretta lynch announced
p19
aVconducting traffic stops
p20
aVstopping people --
p21
aVrosenstein announced
p22
aVfalse search warrant affidavits
p23
aVwoolly mammoths
p24
aVresearchers analysed genetic mutations
p25
aVwoolly mammoth roamed
p26
aVmammoths died
p27
aVimage copyright spl image
p28
aVgenetic mutations
p29
aVsmall island populations clung
p30
aVancient dna sequencing
p31
aVworld tonight dr rebekah rogers
p32
aVaccumulate bad mutations
p33
asS'username'
p34
S'jonathan-gerbscheid'
p35
sS'facial_features'
p36
S'FILENAME'
p37
sS'interests'
p38
(dp39
S'art'
p40
F0.5
sS'money'
p41
F0.5
sS'africa'
p42
F0.5
sS'odd'
p43
F0.8
sS'sport'
p44
F0.5
sS'politics'
p45
F0.5
sS'england'
p46
F0.5
sS'education'
p47
F0.5
sS'technology'
p48
F0.5
sS'golf'
p49
F0.5
sS'basketball'
p50
F0.5
sS'middle_east'
p51
F0.5
sS'northern_ireland'
p52
F0.5
sS'entertainment'
p53
F0.2
sS'motorsport'
p54
F0.5
sS'travel'
p55
F0.8
sS'tennis'
p56
F0.5
sS'scotland'
p57
F0.5
sS'asia'
p58
F0.8
sS'environment'
p59
F0.5
sS'health'
p60
F0.5
sS'wales'
p61
F0.5
sS'top_stories'
p62
F1.0
sS'economy'
p63
F0.2
sS'europe'
p64
F0.8
sS'business'
p65
F0.5
sS'football'
p66
F0.5
sS'latin_america'
p67
F0.5
sS'baseball'
p68
F0.5
sS'world'
p69
F0.5
sS'lifestyle'
p70
F0.2
sS'science'
p71
F0.8
sS'american_football'
p72
F0.5
sS'companies'
p73
F0.5
sS'americas'
p74
F0.5
sS'uk'
p75
F0.5
sS'media'
p76
F0.8
sS'north_america'
p77
F0.8
sS'latest'
p78
F0.5
ssb.