(iuserprofile
UserProfile
p0
(dp1
S'keywords'
p2
(lp3
(lp4
Vsouth wales police
p5
aVimage copyright 9news
p6
aVaustralian federal police
p7
aVturnbull
p8
aVpolice order
p9
aVzahab
p10
aVyoung
p11
aVpolice examine
p12
aVau image
p13
aVimage copyright epa image
p14
aa(lp15
Vtrump team exclude targeted reporters
p16
aVwhite house chief
p17
aVstate department
p18
aVwhite house
p19
aVpress
p20
aVreporters --
p21
aVunited states
p22
aVfree press
p23
aVtrump administration
p24
aVmainstream media
p25
aa(lp26
Vpresidential speeches
p27
aVplanned spending
p28
aVinaugural speech
p29
aVaddress
p30
aVtrump
p31
aVreporters
p32
aVpeople
p33
aVtrump policies
p34
aVspeech
p35
aVprotest trump
p36
aasS'username'
p37
S'jonathan-gerbscheid'
p38
sS'facial_features'
p39
S'FILENAME'
p40
sS'interests'
p41
(dp42
S'art'
p43
F0.8
sS'money'
p44
F0.5
sS'africa'
p45
F0.5
sS'politics'
p46
F0.8
sS'england'
p47
F0.5
sS'sport'
p48
F0.5
sS'technology'
p49
F0.5
sS'golf'
p50
F0.5
sS'basketball'
p51
F0.5
sS'middle_east'
p52
F0.5
sS'northern_ireland'
p53
F0.5
sS'entertainment'
p54
F0.2
sS'odd'
p55
F0.5
sS'travel'
p56
F0.8
sS'tennis'
p57
F0.5
sS'scotland'
p58
F0.5
sS'asia'
p59
F0.8
sS'environment'
p60
F0.5
sS'health'
p61
F0.8
sS'education'
p62
F0.8
sS'wales'
p63
F0.5
sS'top_stories'
p64
F1.0
sS'economy'
p65
F0.2
sS'europe'
p66
F0.5
sS'media'
p67
F0.5
sS'business'
p68
F0.5
sS'football'
p69
F0.5
sS'latin_america'
p70
F0.5
sS'baseball'
p71
F0.5
sS'world'
p72
F0.5
sS'lifestyle'
p73
F0.2
sS'science'
p74
F0.5
sS'american_football'
p75
F0.5
sS'companies'
p76
F0.5
sS'americas'
p77
F0.5
sS'uk'
p78
F0.2
sS'motorsport'
p79
F0.5
sS'north_america'
p80
F0.5
sS'latest'
p81
F0.5
ssb.