(iuserprofile
UserProfile
p0
(dp1
S'keywords'
p2
(lp3
(lp4
Vjoin government churches
p5
aVreligious groups
p6
aVunregistered churches forced
p7
aVfreedom house report focuses
p8
aVreligious regulations
p9
aVunwanted government attention
p10
aVfreedom house
p11
aVnon-governmental organizations
p12
aVchina
p13
aVforeign groups --
p14
aa(lp15
Vrepublican house members
p16
aVpresident trump
p17
aVwhite house
p18
aVbudget
p19
aVdomestic discretionary spending
p20
aVmilitary spending
p21
aVtrump appears intent
p22
aVaddress entitlement programs
p23
aVwhite house signaled
p24
aVtrump
p25
aa(lp26
Vdozen hotels
p27
aVrates
p28
aVsearch
p29
aVyear
p30
aVmarch compared
p31
aVhotel rates drop precipitously
p32
aVspring
p33
aVsnow late
p34
aVconsistent late-season snowfall\u201d
p35
aV\u201cfavorable exchange rates
p36
aa(lp37
Vwater supply
p38
aVdebris flows
p39
aVworking
p40
aVauthorities
p41
aVmain water supply
p42
aVcut
p43
aVleft 19 missing
p44
aVwater runs clear
p45
aVriver
p46
aVcut water access
p47
aa(lp48
Vbiggest prisons
p49
aVhmp berwyn
p50
aVbiggest prison
p51
aVvar iselementinviewport = function
p52
aV{ var monitorscrolling = function
p53
aVwales @-webkit-keyframes spinnerrotate {
p54
aVprisons
p55
aVcurrent biggest prison
p56
aVhigh-security klong prem prison
p57
aVbiggest
p58
aa(lp59
Vlure skilled foreign workers
p60
aVskilled workers
p61
aVlure workers
p62
aVeastern european workers
p63
aVhigh-skilled work
p64
aVlabor shortage limited
p65
aVwork request
p66
aVgovernment
p67
aVdenmark
p68
aVsmaller danish companies
p69
aa(lp70
Vmalaysian police related
p71
aVnorth korean deputy
p72
aVnorth korean leader
p73
aVnorth korean diplomats arrive
p74
aVnorth korean citizen
p75
aVmalaysian police chief khalid abu bakar claims
p76
aVnorth korea
p77
aVmalaysian authorities
p78
aVmalaysian government
p79
aVmalaysian capital
p80
aa(lp81
Vkim jong
p82
aVnorth korea
p83
aVchemical weapons ban
p84
aVchemical weapons convention
p85
aVpreviously denied possessing chemical weapons
p86
aVchemical weapons capability
p87
aVdeadliest chemical weapons
p88
aVvx
p89
aVnorth koreans wanted
p90
aVwomen
p91
aa(lp92
Vviews indigenous women
p93
aVindigenous girls
p94
aVindigenous women
p95
aVspecifically sex trafficking victims
p96
aVfight sex trafficking
p97
aVvictims redsky
p98
aVsex trafficking victims
p99
aVredsky
p100
aVgirls
p101
aVindigenous community
p102
aa(lp103
asS'username'
p104
S'Dickface-Mcgee'
p105
sS'facial_features'
p106
S'FILENAME'
p107
sS'interests'
p108
(dp109
S'golf'
p110
F0.5
sS'money'
p111
F0.5
sS'africa'
p112
F0.5
sS'odd'
p113
F0.5
sS'politics'
p114
F0.5
sS'england'
p115
F0.5
sS'sport'
p116
F0.5
sS'technology'
p117
F0.5
sS'art'
p118
F0.5
sS'basketball'
p119
F0.5
sS'business'
p120
F0.5
sS'northern_ireland'
p121
F0.5
sS'entertainment'
p122
F0.5
sS'motorsport'
p123
F0.5
sS'travel'
p124
F0.5
sS'tennis'
p125
F0.5
sS'scotland'
p126
F0.5
sS'asia'
p127
F0.5
sS'environment'
p128
F0.5
sS'companies'
p129
F0.5
sS'health'
p130
F0.5
sS'wales'
p131
F0.5
sS'top_stories'
p132
F1.0
sS'economy'
p133
F0.5
sS'europe'
p134
F0.5
sS'middle_east'
p135
F0.5
sS'football'
p136
F0.5
sS'latin_america'
p137
F0.5
sS'baseball'
p138
F0.5
sS'world'
p139
F0.5
sS'lifestyle'
p140
F0.5
sS'science'
p141
F0.5
sS'american_football'
p142
F0.5
sS'education'
p143
F0.5
sS'americas'
p144
F0.5
sS'uk'
p145
F0.5
sS'media'
p146
F0.5
sS'north_america'
p147
F0.5
sS'latest'
p148
F0.5
ssb.