(iuserprofile
UserProfile
p0
(dp1
S'keywords'
p2
(lp3
(lp4
Vfrench government
p5
aVeuropean arm opel
p6
aVopel vauxhall
p7
aVgm
p8
aVpsa
p9
aVeuropean operations
p10
aVeuropean champion
p11
aVopel
p12
aVgovernment
p13
aVpreserve opel
p14
aa(lp15
a(lp16
Viraqi troops fighting house
p17
aViraqi troops finally
p18
aVmosul airport
p19
aVwestern mosul
p20
aViraqi forces
p21
aVimportant airport
p22
aViraqi forces backed
p23
aVairport faster
p24
aVisis fighters
p25
aV\u201cisis bodies
p26
aa(lp27
a(lp28
Vexecutives
p29
aVwhite house official
p30
aVunited states
p31
aVsenior white house staff members
p32
aVexecutives huddled privately
p33
aVunited technologies
p34
aVhouse republicans
p35
aVtrump
p36
aV20 percent tax
p37
aVtaxed solely
p38
aa(lp39
Vtrump news
p40
aVsocial media
p41
aVtrump broke mediaquant
p42
aVmedia ecosystem
p43
aVtrump
p44
aVreading newspapers anymore
p45
aVnon-trump articles
p46
aVnewspapers
p47
aVreading facebook
p48
aVnews
p49
aa(lp50
Vfox news channel
p51
aVfox news talk
p52
aValan colmes show
p53
aV\u201channity & colmes\u201d
p54
aV\u201channity & liberal
p55
aVfox news founder
p56
aVgreg gutfeld show
p57
aVliberal panel
p58
aVhost
p59
aVradio
p60
aa(lp61
a(lp62
a(lp63
Vpresident trump
p64
aVmexican president enrique pena nieto
p65
aVmexico
p66
aVmexican counterparts
p67
aVtillerson
p68
aVborder wall
p69
aVmexican imports
p70
aVpresident
p71
aVtrump
p72
aVmexican officials
p73
aasS'username'
p74
cnumpy.core.multiarray
scalar
p75
(cnumpy
dtype
p76
(S'S21'
p77
I0
I1
tp78
Rp79
(I3
S'|'
p80
NNNI21
I1
I0
tp81
bS'jonathan-gerbscheid-0'
p82
tp83
Rp84
sS'facial_features'
p85
S'FILENAME'
p86
sS'interests'
p87
(dp88
S'golf'
p89
F0.5
sS'money'
p90
F0.5
sS'africa'
p91
F0.5
sS'odd'
p92
F0.5
sS'politics'
p93
F0.5
sS'england'
p94
F0.5
sS'sport'
p95
F0.8
sS'technology'
p96
F0.8
sS'art'
p97
F0.5
sS'basketball'
p98
F0.5
sS'business'
p99
F0.8
sS'northern_ireland'
p100
F0.5
sS'entertainment'
p101
F0.5
sS'motorsport'
p102
F0.5
sS'travel'
p103
F0.5
sS'tennis'
p104
F0.5
sS'scotland'
p105
F0.5
sS'asia'
p106
F0.5
sS'environment'
p107
F0.5
sS'companies'
p108
F0.5
sS'health'
p109
F0.5
sS'wales'
p110
F0.5
sS'top_stories'
p111
F1.0
sS'economy'
p112
F0.8
sS'europe'
p113
F0.8
sS'middle_east'
p114
F0.8
sS'football'
p115
F0.5
sS'latin_america'
p116
F0.8
sS'baseball'
p117
F0.5
sS'world'
p118
F0.5
sS'lifestyle'
p119
F0.8
sS'science'
p120
F0.5
sS'american_football'
p121
F0.5
sS'education'
p122
F0.5
sS'americas'
p123
F0.5
sS'uk'
p124
F0.5
sS'media'
p125
F0.8
sS'north_america'
p126
F0.8
sS'latest'
p127
F0.5
ssb.