(iuserprofile
UserProfile
p0
(dp1
S'keywords'
p2
(lp3
Vbaylor handled assault reports
p4
aVpowerful baylor alumni called bears
p5
aV19 football players accused
p6
aVbaylor officials revealed selected text messages
p7
aVpepper hamilton investigation
p8
aVlawsuit claiming baylor fostered
p9
aVcases involving football players
p10
aVpepper hamilton
p11
aVbaylor football coach art briles
p12
aVbaylor filed briles
p13
aVadmit women
p14
aVlondon muirfield golf club voted
p15
aVroyal st george
p16
aVwomen members failed
p17
aVclub captain henry fairweather announced
p18
aVmembers voting
p19
aVincluding four-times major winner rory mcilroy
p20
aVmembership policy
p21
aVwomen members
p22
aVadmit women members
p23
asS'username'
p24
S'nora-schinkel'
p25
sS'facial_features'
p26
S'FILENAME'
p27
sS'interests'
p28
(dp29
S'art'
p30
F0.5
sS'money'
p31
F0.5
sS'africa'
p32
F0.8
sS'politics'
p33
F0.5
sS'england'
p34
F0.5
sS'sport'
p35
F0.8
sS'technology'
p36
F0.2
sS'golf'
p37
F0.5
sS'basketball'
p38
F0.5
sS'middle_east'
p39
F0.5
sS'northern_ireland'
p40
F0.5
sS'entertainment'
p41
F0.2
sS'odd'
p42
F0.2
sS'travel'
p43
F0.5
sS'tennis'
p44
F0.5
sS'scotland'
p45
F0.5
sS'asia'
p46
F0.5
sS'environment'
p47
F0.5
sS'health'
p48
F0.5
sS'education'
p49
F0.8
sS'wales'
p50
F0.5
sS'top_stories'
p51
F1.0
sS'economy'
p52
F0.5
sS'europe'
p53
F0.5
sS'media'
p54
F0.5
sS'business'
p55
F0.2
sS'football'
p56
F0.5
sS'latin_america'
p57
F0.8
sS'baseball'
p58
F0.5
sS'world'
p59
F0.5
sS'lifestyle'
p60
F0.5
sS'science'
p61
F0.5
sS'american_football'
p62
F0.5
sS'companies'
p63
F0.5
sS'americas'
p64
F0.5
sS'uk'
p65
F0.2
sS'motorsport'
p66
F0.5
sS'north_america'
p67
F0.2
sS'latest'
p68
F0.5
ssb.