(iuserprofile
UserProfile
p0
(dp1
S'keywords'
p2
(lp3
(lp4
Vdecades germany
p5
aVmodern germany
p6
aVtown & country
p7
aVeuropean country
p8
aVcitizenship
p9
aVglobalising world
p10
aVcitizenship status
p11
aVgermans
p12
aVcountry
p13
aVgerman
p14
aa(lp15
Vdemocratic governors association
p16
aVdemocratic state executives
p17
aVdemocratic governors favor
p18
aVdemocratic governors pressing
p19
aVdemocratic governors prodded
p20
aVstates
p21
aVcreate jobs
p22
aVtrump
p23
aVpresident
p24
aVjobs bill
p25
aa(lp26
Vreefs
p27
aVinland coral nursery
p28
aVregrow damaged coral reefs
p29
aVocean
p30
aVmaldives
p31
aVreef
p32
aVtransplant
p33
aVcoral
p34
aVnursery
p35
aVandaman
p36
aa(lp37
Vquieter summer
p38
aVshravanth vijayakumar
p39
aVgroup
p40
aVteam moving
p41
aVsouthampton
p42
aVlot quieter
p43
aVsummers
p44
aVkrueger predicted
p45
aVmanchester united
p46
aVkrueger
p47
aa(lp48
Vbirth rate --
p49
aV400 million people
p50
aV90 million people
p51
aV114 million people
p52
aVdeclining birth rate --
p53
aVtwo-child policy won
p54
aVlu
p55
aVone-child policy
p56
aVchina
p57
aVgovernment data
p58
aa(lp59
Vbusinesses
p60
aVbusiness rates bills represents
p61
aVfuture business rates valuations
p62
aVbusiness rates burden
p63
aVsmall firms expected
p64
aVsmall business
p65
aVshadow business secretary rebecca long-bailey
p66
aVsmall business owners
p67
aVensures business rate bills
p68
aVbring rates
p69
aa(lp70
Vspokesman
p71
aVbrussels
p72
aVstation
p73
aVminister
p74
aVcycling
p75
aVhour
p76
aVbike
p77
aVleft
p78
aVpromote alternative modes
p79
aVphilip blenkinsop
p80
aa(lp81
Venvelopes
p82
aVhistoric oscars blunder pwc quickly apologized
p83
aVshowed fresh-off-the-stage winner emma stone smiling
p84
aVla la land
p85
aVoscars audience
p86
aVcullinan alternated handing envelopes
p87
aVstage
p88
aVwinner
p89
aVpwc representative
p90
aVenvelope
p91
aa(lp92
a(lp93
Vimage copyright tommy trenchard/save
p94
aVchildren image
p95
aVyellow fever vaccine
p96
aVimages courtesy
p97
aVchildren
p98
aVtommy trenchard/save
p99
aVkinshasa
p100
aV000 people
p101
aVvaccination sites
p102
aVpeople
p103
aasS'username'
p104
S''
p105
sS'facial_features'
p106
S'FILENAME'
p107
sS'interests'
p108
(dp109
S'golf'
p110
F0.5
sS'money'
p111
F0.5
sS'africa'
p112
F0.8
sS'odd'
p113
F0.8
sS'politics'
p114
F0.8
sS'england'
p115
F0.5
sS'sport'
p116
F0.8
sS'technology'
p117
F0.5
sS'art'
p118
F0.5
sS'basketball'
p119
F0.5
sS'business'
p120
F0.5
sS'northern_ireland'
p121
F0.5
sS'entertainment'
p122
F0.5
sS'motorsport'
p123
F0.5
sS'travel'
p124
F0.8
sS'tennis'
p125
F0.5
sS'scotland'
p126
F0.5
sS'asia'
p127
F0.5
sS'environment'
p128
F0.8
sS'companies'
p129
F0.5
sS'health'
p130
F0.5
sS'wales'
p131
F0.5
sS'top_stories'
p132
F1.0
sS'economy'
p133
F0.8
sS'europe'
p134
F0.5
sS'middle_east'
p135
F0.5
sS'football'
p136
F0.5
sS'latin_america'
p137
F0.5
sS'baseball'
p138
F0.5
sS'world'
p139
F0.5
sS'lifestyle'
p140
F0.8
sS'science'
p141
F0.5
sS'american_football'
p142
F0.5
sS'education'
p143
F0.5
sS'americas'
p144
F0.5
sS'uk'
p145
F0.8
sS'media'
p146
F0.8
sS'north_america'
p147
F0.5
sS'latest'
p148
F0.5
ssb.