(iuserprofile
UserProfile
p0
(dp1
S'keywords'
p2
(lp3
(lp4
V2025 fuel-economy targets
p5
aVtrump heavily criticized automakers
p6
aVhigher standards
p7
aVstandards continue
p8
aVstates
p9
aVautomakers
p10
aVpruitt reopens
p11
aV2025 targets
p12
aVtrump
p13
aVpruitt frequently sued
p14
aa(lp15
Vgroups writing ransomware run
p16
aVpeople attracted
p17
aVanton
p18
aVransomware
p19
aVunderground
p20
aVdigital defences people
p21
aVproducing poorly-written malware
p22
aVgroups
p23
aVransomware writers means
p24
aVsoftware
p25
aa(lp26
V\u201cbeer money\u201d
p27
aVstrohs
p28
aVthird-largest beer company
p29
aVstroh
p30
aV\u201d ms
p31
aVdetroit
p32
aVbook sale proceeds
p33
aVms
p34
aVfamily
p35
aVcompany
p36
aa(lp37
Vestablished climate science
p38
aVdr
p39
aVclimate data
p40
aV\u201d dr
p41
aVasked dr
p42
aVpeterson
p43
aVbates
p44
aVstudy dr
p45
aVnoaa center
p46
aVmail article appeared \u2014
p47
aa(lp48
V100 south african fishermen
p49
aVglobal fishing catches
p50
aVsimilar cloud-based fishing app
p51
aVglobal fishing watch scheme
p52
aVlaunch global fishing watch
p53
aVfishing operation
p54
aVimage copyright afp image
p55
aVtargeted fishing
p56
aVfishermen
p57
aVcaught fishing
p58
aa(lp59
Vrussia
p60
aVintelligence officials
p61
aVcrimea
p62
aVtrump
p63
aVreturn crimea
p64
aVtrump administration
p65
aVrussia grows
p66
aVintelligence matters
p67
aVamerican officials
p68
aVrussian president vladimir putin
p69
aa(lp70
Vlauren tara lacapra
p71
aVlauren hirsch
p72
aVwin
p73
aVexchange
p74
aVnyse
p75
aVtrial run
p76
aVtechnology
p77
aVipos
p78
aVtrial runs
p79
aVintercontinental exchange inc
p80
aa(lp81
Viceberg calving
p82
aVice shelf
p83
aV000 sq km
p84
aVross ice shelf
p85
aViceberg
p86
aVlarsen
p87
aVswansea university
p88
aVshallow continental shelf
p89
aVbritish overseas territory
p90
aVantarctica
p91
aa(lp92
a(lp93
Vminsk agreement
p94
aVukraine zannier
p95
aV200 ceasefire violations overnight tuesday local time
p96
aVrussian-led terrorists
p97
aVukrainian civilians
p98
aVukrainian soldiers
p99
aVthen-ukrainian prime minister arseniy yatsenyuk spoke
p100
aVweapons
p101
aVrussian federation
p102
aVpolitical prisoners
p103
aasS'username'
p104
S''
p105
sS'facial_features'
p106
S'FILENAME'
p107
sS'interests'
p108
(dp109
S'golf'
p110
F0.5
sS'money'
p111
F0.5
sS'africa'
p112
F0.5
sS'odd'
p113
F0.2
sS'politics'
p114
F0.5
sS'england'
p115
F0.5
sS'sport'
p116
F0.5
sS'technology'
p117
F0.5
sS'art'
p118
F0.5
sS'basketball'
p119
F0.5
sS'business'
p120
F0.5
sS'northern_ireland'
p121
F0.5
sS'entertainment'
p122
F0.5
sS'motorsport'
p123
F0.5
sS'travel'
p124
F0.5
sS'tennis'
p125
F0.5
sS'scotland'
p126
F0.5
sS'asia'
p127
F0.5
sS'environment'
p128
F0.2
sS'companies'
p129
F0.5
sS'health'
p130
F0.2
sS'wales'
p131
F0.5
sS'top_stories'
p132
F1.0
sS'economy'
p133
F0.5
sS'europe'
p134
F0.2
sS'middle_east'
p135
F0.2
sS'football'
p136
F0.5
sS'latin_america'
p137
F0.5
sS'baseball'
p138
F0.5
sS'world'
p139
F0.5
sS'lifestyle'
p140
F0.2
sS'science'
p141
F0.8
sS'american_football'
p142
F0.5
sS'education'
p143
F0.2
sS'americas'
p144
F0.5
sS'uk'
p145
F0.2
sS'media'
p146
F0.2
sS'north_america'
p147
F0.5
sS'latest'
p148
F0.5
ssb.