(iuserprofile
UserProfile
p0
(dp1
S'keywords'
p2
(lp3
(lp4
Varchitecture created
p5
aVafrican architecture
p6
aVserpentine pavilion 2017 read
p7
aVpeople
p8
aVlavish architecture
p9
aVsustainable architecture
p10
aVschool bagged
p11
aVarchitecture
p12
aVfrugally created
p13
aVraised roof supported
p14
aa(lp15
Vcivil partnership
p16
aVheterosexual couple
p17
aVsame-sex couples
p18
aVcivil union
p19
aVchoose civil partnership
p20
aV2014couples
p21
aV161 couples joined
p22
aV2008 introduced civil unions
p23
aV2005opposite-sex couples
p24
aVyounger couples
p25
aa(lp26
Vmexican counterpart
p27
aVimage copyright getty images image
p28
aVpresident trump deliver
p29
aVeconomic malaise president trump
p30
aVmexican president
p31
aVmexicans
p32
aVpresident
p33
aVtrump administration
p34
aVunity
p35
aVmexico
p36
aa(lp37
Vstewart murdered ms bailey
p38
aVkidnapped ms bailey
p39
aVpreventing ms bailey
p40
aVreported missing ms bailey penned
p41
aV/**/ stewart reported ms bailey missing
p42
aVhelen bailey
p43
aVjudge bright qc
p44
aVinherit ms bailey
p45
aVstewart
p46
aVdeath
p47
aa(lp48
V#myfreedomday
p49
aVfreedom -- students
p50
aVfreedom means
p51
aV/myfreedom
p52
aVcnn
p53
aVlocal organizations
p54
aVlocal lawmakers
p55
aVstudents volunteer
p56
aVday
p57
aVanti-trafficking organizations
p58
aa(lp59
Vmessage
p60
aVcnn
p61
aVbillboard shouldn
p62
aVgroup desires
p63
aVbillboard cost
p64
aVgroup
p65
aVwhiteheart outdoor advertising
p66
aVbill whiteheart
p67
aVgrace
p68
aVprotest
p69
aa(lp70
Vde bruyne
p71
aVteams rarely outplay city
p72
aVdefensive mistakes de bruyne
p73
aVseason
p74
aVfamous win
p75
aVwinter trials
p76
aVwinner
p77
aVreplay
p78
aVsecond-tier huddersfield
p79
aVstones
p80
aa(lp81
Valcohol results
p82
aVstudy tells
p83
aValcohol
p84
aVresults
p85
aVsubstance experimentation
p86
aVcheat students
p87
aVteen substance
p88
aVstudy time
p89
aVexcessive drinking
p90
aVstudents
p91
aa(lp92
a(lp93
Vgarvey thought
p94
aVgarvey sued
p95
aVkasten eventually conceded
p96
aVplayers
p97
aVunion
p98
aVexecutive director
p99
aVkasten ran
p100
aVgarvey exhibited
p101
aVgovernor
p102
aVlabor unions
p103
aasS'username'
p104
S''
p105
sS'facial_features'
p106
S'FILENAME'
p107
sS'interests'
p108
(dp109
S'golf'
p110
F0.5
sS'money'
p111
F0.5
sS'africa'
p112
F0.5
sS'odd'
p113
F0.5
sS'politics'
p114
F0.5
sS'england'
p115
F0.5
sS'sport'
p116
F0.5
sS'technology'
p117
F0.2
sS'art'
p118
F0.2
sS'basketball'
p119
F0.5
sS'business'
p120
F0.5
sS'northern_ireland'
p121
F0.5
sS'entertainment'
p122
F0.5
sS'motorsport'
p123
F0.5
sS'travel'
p124
F0.2
sS'tennis'
p125
F0.5
sS'scotland'
p126
F0.5
sS'asia'
p127
F0.2
sS'environment'
p128
F0.2
sS'companies'
p129
F0.5
sS'health'
p130
F0.5
sS'wales'
p131
F0.5
sS'top_stories'
p132
F1.0
sS'economy'
p133
F0.5
sS'europe'
p134
F0.2
sS'middle_east'
p135
F0.5
sS'football'
p136
F0.5
sS'latin_america'
p137
F0.5
sS'baseball'
p138
F0.5
sS'world'
p139
F0.5
sS'lifestyle'
p140
F0.5
sS'science'
p141
F0.2
sS'american_football'
p142
F0.5
sS'education'
p143
F0.5
sS'americas'
p144
F0.5
sS'uk'
p145
F0.2
sS'media'
p146
F0.2
sS'north_america'
p147
F0.2
sS'latest'
p148
F0.5
ssb.