(iuserprofile
UserProfile
p0
(dp1
S'keywords'
p2
(lp3
(lp4
Vstarted acting
p5
aVeasy
p6
aVwork
p7
aVwanted
p8
aVworkshop
p9
aVstarted
p10
aVserious-minded people
p11
aVteach
p12
aVschool
p13
aVlong
p14
aa(lp15
Vsuper slippery bottle
p16
aVslippery surface
p17
aVtreated container slips easily
p18
aVpaint container
p19
aVketchup
p20
aVsignificantly reduce waste
p21
aVtechnology
p22
aVreduce waste
p23
aVcoating
p24
aVliquid
p25
aa(lp26
Vbloodhound ssc
p27
aVmain fuel tank
p28
aVjet engine
p29
aVmain tank
p30
aVcareer flying supersonic jet fighters
p31
aVfuel tank
p32
aVjet fuel
p33
aVmain tarmac road
p34
aVhigh-performance jet engine
p35
aVmain tank ac pump
p36
aa(lp37
Vimage copyright afp image
p38
aVworld
p39
aVfilm
p40
aVstatement
p41
aVproducer joanna natasegara read
p42
aVimage copyright reuters image
p43
aVwon
p44
aVnetflix film
p45
aVtrump
p46
aVstatement read
p47
aasS'username'
p48
S'Rijnder-Wever'
p49
sS'facial_features'
p50
S'FILENAME'
p51
sS'interests'
p52
(dp53
S'england'
p54
F0.5
sS'motorsport'
p55
F0.5
sS'money'
p56
F0.5
sS'africa'
p57
F0.5
sS'sport'
p58
F0.2
sS'politics'
p59
F0.5
sS'education'
p60
F0.2
sS'odd'
p61
F0.5
sS'golf'
p62
F0.5
sS'art'
p63
F0.5
sS'basketball'
p64
F0.5
sS'business'
p65
F0.5
sS'northern_ireland'
p66
F0.5
sS'entertainment'
p67
F0.8
sS'technology'
p68
F0.5
sS'travel'
p69
F0.8
sS'tennis'
p70
F0.5
sS'scotland'
p71
F0.5
sS'asia'
p72
F0.2
sS'environment'
p73
F0.5
sS'health'
p74
F0.2
sS'wales'
p75
F0.5
sS'top_stories'
p76
F1.0
sS'economy'
p77
F0.5
sS'europe'
p78
F0.5
sS'middle_east'
p79
F0.2
sS'football'
p80
F0.5
sS'latin_america'
p81
F0.5
sS'baseball'
p82
F0.5
sS'world'
p83
F0.5
sS'lifestyle'
p84
F0.5
sS'science'
p85
F0.8
sS'american_football'
p86
F0.5
sS'companies'
p87
F0.5
sS'americas'
p88
F0.5
sS'uk'
p89
F0.8
sS'media'
p90
F0.5
sS'north_america'
p91
F0.2
sS'latest'
p92
F0.5
ssb.