(iuserprofile
UserProfile
p0
(dp1
S'keywords'
p2
(lp3
(lp4
V\u201cwealthy individuals
p5
aVindex funds
p6
aVindex-loving advice
p7
aV\u2014 wealthy individuals
p8
aVbuffett
p9
aVmoney leaves
p10
aVmoney meets
p11
aVhedge funds
p12
aVyear
p13
aVbuffett observed
p14
aa(lp15
Vdrug development process
p16
aVimage copyright thinkstock image
p17
aVpharma companies
p18
aVimage copyright alivecor image
p19
aVdrug development
p20
aVtop 25 pharma companies
p21
aVdrug companies
p22
aVimage copyright getty images image
p23
aVcloud computing
p24
aVhistorical data
p25
aa(lp26
a(lp27
Visis-affiliated website amaq
p28
aVamri
p29
aVpolice
p30
aVanis amri
p31
aVcrowded market
p32
aVtwelve people died
p33
aVberlin christmas market
p34
aVgermans
p35
aVincident
p36
aVsouthwest germany
p37
aa(lp38
Vheart attacks
p39
aVcoronary heart disease
p40
aVcommon heart attack
p41
aVtypical heart attack patient
p42
aVwomen
p43
aVyoung
p44
aVscad
p45
aVnicki
p46
aVpeople talking
p47
aVpanic attacks
p48
aa(lp49
Vdeborah kyvrikosaios
p50
aVottoman rulers occupying greece
p51
aVgalaxidi residents defied
p52
aVplastic suits
p53
aVplastic sheeting
p54
aVvillagers cover
p55
aVfire flour bombs
p56
aVflour flies
p57
aVbaking flour
p58
aVvillagers fill hundreds
p59
aa(lp60
Vflag emoji bill
p61
aVchilean flag
p62
aVresolution generated statewide news
p63
aVtexas flag
p64
aVhorizontal white stripe
p65
aVsingle white star
p66
aVlone star flag
p67
aVchile flag emoji
p68
aVofficial state flag
p69
aVlone star state flag
p70
aasS'username'
p71
S'Wim-Gerbscheid'
p72
sS'facial_features'
p73
S'FILENAME'
p74
sS'interests'
p75
(dp76
S'golf'
p77
F0.5
sS'money'
p78
F0.5
sS'africa'
p79
F0.2
sS'odd'
p80
F0.8
sS'politics'
p81
F0.2
sS'england'
p82
F0.5
sS'sport'
p83
F0.5
sS'technology'
p84
F0.8
sS'art'
p85
F0.5
sS'basketball'
p86
F0.5
sS'business'
p87
F0.8
sS'northern_ireland'
p88
F0.5
sS'entertainment'
p89
F0.8
sS'motorsport'
p90
F0.5
sS'travel'
p91
F0.2
sS'tennis'
p92
F0.5
sS'scotland'
p93
F0.5
sS'asia'
p94
F0.5
sS'environment'
p95
F0.5
sS'companies'
p96
F0.5
sS'health'
p97
F0.5
sS'wales'
p98
F0.5
sS'top_stories'
p99
F1.0
sS'economy'
p100
F0.5
sS'europe'
p101
F0.8
sS'middle_east'
p102
F0.5
sS'football'
p103
F0.5
sS'latin_america'
p104
F0.2
sS'baseball'
p105
F0.5
sS'world'
p106
F0.5
sS'lifestyle'
p107
F0.5
sS'science'
p108
F0.5
sS'american_football'
p109
F0.5
sS'education'
p110
F0.5
sS'americas'
p111
F0.5
sS'uk'
p112
F0.2
sS'media'
p113
F0.5
sS'north_america'
p114
F0.5
sS'latest'
p115
F0.5
ssb.