(iuserprofile
UserProfile
p0
(dp1
S'keywords'
p2
(lp3
(lp4
V000 private hire drivers
p5
aVprivate hire firms
p6
aVprivate hire insurance
p7
aVdue
p8
aVhigh court
p9
aVlondon
p10
aVdrivers
p11
aVuber
p12
aVyears
p13
aVenglish
p14
aa(lp15
a(lp16
Vincorporate collaborative robots
p17
aVcollaborative robots entering manufacturing today
p18
aVcollaborative industrial robots \u2014
p19
aVexpect collaborative robots
p20
aVdesigning robots
p21
aV\u201cdelta\u201d robots \u2014 upside-
p22
aVrobots fit
p23
aVcollaborative robot
p24
aVcollaborative-robot project
p25
aVdesigns robots
p26
aasS'username'
p27
S'Jornam-Wessos'
p28
sS'facial_features'
p29
S'FILENAME'
p30
sS'interests'
p31
(dp32
S'golf'
p33
F0.5
sS'money'
p34
F0.5
sS'africa'
p35
F0.5
sS'odd'
p36
F0.2
sS'politics'
p37
F0.5
sS'england'
p38
F0.5
sS'sport'
p39
F0.5
sS'technology'
p40
F0.8
sS'art'
p41
F0.2
sS'basketball'
p42
F0.5
sS'business'
p43
F0.5
sS'northern_ireland'
p44
F0.5
sS'entertainment'
p45
F0.5
sS'motorsport'
p46
F0.5
sS'travel'
p47
F0.2
sS'tennis'
p48
F0.5
sS'scotland'
p49
F0.5
sS'asia'
p50
F0.8
sS'environment'
p51
F0.5
sS'companies'
p52
F0.5
sS'health'
p53
F0.5
sS'wales'
p54
F0.5
sS'top_stories'
p55
F1.0
sS'economy'
p56
F0.2
sS'europe'
p57
F0.8
sS'middle_east'
p58
F0.5
sS'football'
p59
F0.5
sS'latin_america'
p60
F0.2
sS'baseball'
p61
F0.5
sS'world'
p62
F0.5
sS'lifestyle'
p63
F0.5
sS'science'
p64
F0.8
sS'american_football'
p65
F0.5
sS'education'
p66
F0.5
sS'americas'
p67
F0.5
sS'uk'
p68
F0.5
sS'media'
p69
F0.2
sS'north_america'
p70
F0.5
sS'latest'
p71
F0.5
ssb.