(iuserprofile
UserProfile
p0
(dp1
S'keywords'
p2
(lp3
(lp4
Vfamilies
p5
aVchildren
p6
aVseparate families
p7
aVuk charity supporting migrants
p8
aVincome
p9
aVrights network
p10
aVchildren involved
p11
aVincome threshold
p12
aVcourt
p13
aVcurrent rules remain
p14
aa(lp15
a(lp16
Vlocal labor day picnic
p17
aVjobs aren
p18
aVworking class
p19
aVfind jobs
p20
aVentry-level jobs
p21
aVlow-paid service jobs
p22
aVworkers
p23
aV000 people
p24
aVworking-class habit
p25
aVnortheast indiana central labor council
p26
aa(lp27
Vexporting trinidadian culture globally
p28
aVcarnival culture
p29
aVbermuda carnival
p30
aVislands
p31
aVtrinidad entertainment company
p32
aVcarnival manifests
p33
aVcaribbean
p34
aVcarnival
p35
aVcaribbean context
p36
aVsunrise carnival ritual populated
p37
aa(lp38
Vjourney starts
p39
aa(lp40
Vspacex dragon supply ship successfully reached orbit
p41
aV14 january spacex resumed flights
p42
aVinternational space station
p43
aVspacex mission control room
p44
aVunpredictable rockets
p45
aVlaunch pad mishap
p46
aVcivil space agency
p47
aVcompany
p48
aVlaunch pad
p49
aVlaunching
p50
aa(lp51
Vbeam students gathered
p52
aVattending summer school
p53
aV\u201csummer math nerds
p54
aVsummer math camp
p55
aVblack students
p56
aV\u201d thays informed jonathan
p57
aVteaches middle-school math
p58
aV20 black graduate students received ph
p59
aVhigh school students based
p60
aVmath
p61
aa(lp62
Vhigher consumer spending
p63
aVincrease spending
p64
aVfederal government
p65
aVincreased spending
p66
aVtax system
p67
aVcurrent account surplus
p68
aVfigures follow european commission criticism
p69
aVimports increased
p70
aVyear
p71
aVlocal government expenditure
p72
aa(lp73
Vscotland yard job
p74
aVpressing issues facing scotland yard
p75
aVnational police chiefs
p76
aVleft scotland yard
p77
aVms
p78
aVdick
p79
aVwomen
p80
aVappointment
p81
aVcressida dick
p82
aVlondon
p83
aa(lp84
Vfrench government
p85
aVeuropean arm opel
p86
aVopel vauxhall
p87
aVgm
p88
aVpsa
p89
aVeuropean operations
p90
aVeuropean champion
p91
aVopel
p92
aVgovernment
p93
aVpreserve opel
p94
aasS'username'
p95
S''
p96
sS'facial_features'
p97
S'FILENAME'
p98
sS'interests'
p99
(dp100
S'golf'
p101
F0.5
sS'money'
p102
F0.5
sS'africa'
p103
F0.8
sS'odd'
p104
F0.5
sS'politics'
p105
F0.8
sS'england'
p106
F0.5
sS'sport'
p107
F0.5
sS'technology'
p108
F0.5
sS'art'
p109
F0.5
sS'basketball'
p110
F0.5
sS'business'
p111
F0.5
sS'northern_ireland'
p112
F0.5
sS'entertainment'
p113
F0.5
sS'motorsport'
p114
F0.5
sS'travel'
p115
F0.8
sS'tennis'
p116
F0.5
sS'scotland'
p117
F0.5
sS'asia'
p118
F0.8
sS'environment'
p119
F0.8
sS'companies'
p120
F0.5
sS'health'
p121
F0.5
sS'wales'
p122
F0.5
sS'top_stories'
p123
F1.0
sS'economy'
p124
F0.5
sS'europe'
p125
F0.8
sS'middle_east'
p126
F0.5
sS'football'
p127
F0.5
sS'latin_america'
p128
F0.5
sS'baseball'
p129
F0.5
sS'world'
p130
F0.5
sS'lifestyle'
p131
F0.5
sS'science'
p132
F0.8
sS'american_football'
p133
F0.5
sS'education'
p134
F0.8
sS'americas'
p135
F0.5
sS'uk'
p136
F0.8
sS'media'
p137
F0.8
sS'north_america'
p138
F0.5
sS'latest'
p139
F0.5
ssb.