(iuserprofile
UserProfile
p0
(dp1
S'keywords'
p2
(lp3
(lp4
Vhospital keeping patients
p5
aVtreat patients
p6
aVleave hospital neighbourhood teamsgiven
p7
aVextensive care system helped
p8
aVempower patients
p9
aVhealthier
p10
aVhospitals
p11
aVfylde coast
p12
aVsystem
p13
aVoutpatients appointments
p14
aa(lp15
Vlocal labor day picnic
p16
aVjobs aren
p17
aVworking class
p18
aVfind jobs
p19
aVentry-level jobs
p20
aVlow-paid service jobs
p21
aVworkers
p22
aV000 people
p23
aVworking-class habit
p24
aVnortheast indiana central labor council
p25
aa(lp26
Vbird flu outbreaks
p27
aVh7n9 bird flu
p28
aVbirds
p29
aVh7n9 bird flu virus
p30
aVinfected birds
p31
aVh7n9
p32
aVprevious years
p33
aVdeath toll
p34
aVyears
p35
aVchina
p36
aa(lp37
Vcarnival activities traditionally poke fun
p38
aVyear
p39
aVparty costumes
p40
aVfestartikel mueller
p41
aVsusanne mueller
p42
aVgermany
p43
aVhigh demand
p44
aVdonald trump-style wigs
p45
aVcarnival-goers
p46
aVpolice chief achim zahn appealed
p47
aa(lp48
Vamerican history
p49
aVmusical theater
p50
aVamerican politics
p51
aVmarathon performance
p52
aVmusical \u201chamilton
p53
aVpolitics
p54
aVsenator kennedy
p55
aVjean kennedy smith
p56
aVprize
p57
aVhistory\u201d
p58
aag37
asS'username'
p59
S'Thomas Groot'
p60
sS'facial_features'
p61
S'FILENAME'
p62
sS'interests'
p63
(dp64
S'golf'
p65
F0.5
sS'money'
p66
F0.5
sS'africa'
p67
F0.5
sS'odd'
p68
F0.5
sS'politics'
p69
F0.2
sS'england'
p70
F0.5
sS'sport'
p71
F0.2
sS'technology'
p72
F0.5
sS'art'
p73
F0.8
sS'basketball'
p74
F0.5
sS'business'
p75
F0.5
sS'northern_ireland'
p76
F0.5
sS'entertainment'
p77
F0.2
sS'motorsport'
p78
F0.5
sS'travel'
p79
F0.5
sS'tennis'
p80
F0.5
sS'scotland'
p81
F0.5
sS'asia'
p82
F0.8
sS'environment'
p83
F0.5
sS'companies'
p84
F0.5
sS'health'
p85
F0.8
sS'wales'
p86
F0.5
sS'top_stories'
p87
F1.0
sS'economy'
p88
F0.8
sS'europe'
p89
F0.5
sS'middle_east'
p90
F0.5
sS'football'
p91
F0.5
sS'latin_america'
p92
F0.2
sS'baseball'
p93
F0.5
sS'world'
p94
F0.5
sS'lifestyle'
p95
F0.8
sS'science'
p96
F0.5
sS'american_football'
p97
F0.5
sS'education'
p98
F0.5
sS'americas'
p99
F0.5
sS'uk'
p100
F0.2
sS'media'
p101
F0.5
sS'north_america'
p102
F0.5
sS'latest'
p103
F0.5
ssb.